target datalayout = "e-m:e-p270:32:32-p271:32:32-p272:64:64-i64:64-i128:128-f80:128-n8:16:32:64-S128"
target triple = "x86_64-pc-linux-gnu"

%"class.ncnn::DeconvolutionDepthWise1D" = type { %"class.ncnn::Layer", i32, i32, i32, i32, i32, i32, i32, i32, i32, i32, i32, i32, %"class.ncnn::Mat", i32, %"class.ncnn::Mat", %"class.ncnn::Mat" }
%"class.ncnn::Layer" = type { ptr, i8, i8, i8, i8, i8, i8, i8, i8, i8, i8, i8, i8, i8, i8, i8, i8, i8, i8, i8, i8, i32, ptr, i32, %"class.std::__cxx11::basic_string", %"class.std::__cxx11::basic_string", %"class.std::vector", %"class.std::vector", %"class.std::vector.3", %"class.std::vector.3" }
%"class.std::__cxx11::basic_string" = type { %"struct.std::__cxx11::basic_string<char>::_Alloc_hider", i64, %union.anon }
%"struct.std::__cxx11::basic_string<char>::_Alloc_hider" = type { ptr }
%union.anon = type { i64, [8 x i8] }
%"class.std::vector" = type { %"struct.std::_Vector_base" }
%"struct.std::_Vector_base" = type { %"struct.std::_Vector_base<int, std::allocator<int>>::_Vector_impl" }
%"struct.std::_Vector_base<int, std::allocator<int>>::_Vector_impl" = type { %"struct.std::_Vector_base<int, std::allocator<int>>::_Vector_impl_data" }
%"struct.std::_Vector_base<int, std::allocator<int>>::_Vector_impl_data" = type { ptr, ptr, ptr }
%"class.std::vector.3" = type { %"struct.std::_Vector_base.4" }
%"struct.std::_Vector_base.4" = type { %"struct.std::_Vector_base<ncnn::Mat, std::allocator<ncnn::Mat>>::_Vector_impl" }
%"struct.std::_Vector_base<ncnn::Mat, std::allocator<ncnn::Mat>>::_Vector_impl" = type { %"struct.std::_Vector_base<ncnn::Mat, std::allocator<ncnn::Mat>>::_Vector_impl_data" }
%"struct.std::_Vector_base<ncnn::Mat, std::allocator<ncnn::Mat>>::_Vector_impl_data" = type { ptr, ptr, ptr }
%"class.ncnn::Mat" = type { ptr, ptr, i64, i32, ptr, i32, i32, i32, i32, i32, i64 }

; Function Attrs: alwaysinline mustprogress nounwind uwtable
define internal void @_ZN4ncnnL8fastFreeEPv(ptr noundef %0) #3 {
  %2 = alloca ptr, align 8
  store ptr %0, ptr %2, align 8, !tbaa !80
  %3 = load ptr, ptr %2, align 8, !tbaa !80
  %4 = icmp ne ptr %3, null
  br i1 %4, label %5, label %7

5:                                                ; preds = %1
  %6 = load ptr, ptr %2, align 8, !tbaa !80
  call void @free(ptr noundef %6) #9
  br label %7

7:                                                ; preds = %5, %1
  ret void
}

; Function Attrs: alwaysinline mustprogress uwtable
define linkonce_odr hidden void @_ZN4ncnn3Mat7releaseEv(ptr noundef nonnull align 8 dereferenceable(72) %0) #5 comdat align 2 {
  %2 = alloca ptr, align 8
  %3 = alloca i32, align 4
  %4 = alloca i32, align 4
  store ptr %0, ptr %2, align 8, !tbaa !53
  %5 = load ptr, ptr %2, align 8
  %6 = getelementptr inbounds nuw %"class.ncnn::Mat", ptr %5, i32 0, i32 1
  %7 = load ptr, ptr %6, align 8, !tbaa !73
  %8 = icmp ne ptr %7, null
  br i1 %8, label %9, label %32

9:                                                ; preds = %1
  %10 = getelementptr inbounds nuw %"class.ncnn::Mat", ptr %5, i32 0, i32 1
  %11 = load ptr, ptr %10, align 8, !tbaa !73
  store i32 -1, ptr %3, align 4, !tbaa !55
  %12 = load i32, ptr %3, align 4
  %13 = atomicrmw add ptr %11, i32 %12 acq_rel, align 4
  store i32 %13, ptr %4, align 4
  %14 = load i32, ptr %4, align 4, !tbaa !55
  %15 = icmp eq i32 %14, 1
  br i1 %15, label %16, label %32

16:                                               ; preds = %9
  %17 = getelementptr inbounds nuw %"class.ncnn::Mat", ptr %5, i32 0, i32 4
  %18 = load ptr, ptr %17, align 8, !tbaa !75
  %19 = icmp ne ptr %18, null
  br i1 %19, label %20, label %28

20:                                               ; preds = %16
  %21 = getelementptr inbounds nuw %"class.ncnn::Mat", ptr %5, i32 0, i32 4
  %22 = load ptr, ptr %21, align 8, !tbaa !75
  %23 = getelementptr inbounds nuw %"class.ncnn::Mat", ptr %5, i32 0, i32 0
  %24 = load ptr, ptr %23, align 8, !tbaa !72
  %25 = load ptr, ptr %22, align 8, !tbaa !9
  %26 = getelementptr inbounds ptr, ptr %25, i64 3
  %27 = load ptr, ptr %26, align 8
  call void %27(ptr noundef nonnull align 8 dereferenceable(8) %22, ptr noundef %24)
  br label %31

28:                                               ; preds = %16
  %29 = getelementptr inbounds nuw %"class.ncnn::Mat", ptr %5, i32 0, i32 0
  %30 = load ptr, ptr %29, align 8, !tbaa !72
  call void @_ZN4ncnnL8fastFreeEPv(ptr noundef %30)
  br label %31

31:                                               ; preds = %28, %20
  br label %32

32:                                               ; preds = %31, %9, %1
  %33 = getelementptr inbounds nuw %"class.ncnn::Mat", ptr %5, i32 0, i32 0
  store ptr null, ptr %33, align 8, !tbaa !72
  %34 = getelementptr inbounds nuw %"class.ncnn::Mat", ptr %5, i32 0, i32 2
  store i64 0, ptr %34, align 8, !tbaa !69
  %35 = getelementptr inbounds nuw %"class.ncnn::Mat", ptr %5, i32 0, i32 3
  store i32 0, ptr %35, align 8, !tbaa !74
  %36 = getelementptr inbounds nuw %"class.ncnn::Mat", ptr %5, i32 0, i32 5
  store i32 0, ptr %36, align 8, !tbaa !76
  %37 = getelementptr inbounds nuw %"class.ncnn::Mat", ptr %5, i32 0, i32 6
  store i32 0, ptr %37, align 4, !tbaa !56
  %38 = getelementptr inbounds nuw %"class.ncnn::Mat", ptr %5, i32 0, i32 7
  store i32 0, ptr %38, align 8, !tbaa !54
  %39 = getelementptr inbounds nuw %"class.ncnn::Mat", ptr %5, i32 0, i32 8
  store i32 0, ptr %39, align 4, !tbaa !77
  %40 = getelementptr inbounds nuw %"class.ncnn::Mat", ptr %5, i32 0, i32 9
  store i32 0, ptr %40, align 8, !tbaa !78
  %41 = getelementptr inbounds nuw %"class.ncnn::Mat", ptr %5, i32 0, i32 10
  store i64 0, ptr %41, align 8, !tbaa !79
  %42 = getelementptr inbounds nuw %"class.ncnn::Mat", ptr %5, i32 0, i32 1
  store ptr null, ptr %42, align 8, !tbaa !73
  ret void
}

; Function Attrs: alwaysinline mustprogress uwtable
define linkonce_odr hidden noundef nonnull align 8 dereferenceable(72) ptr @_ZN4ncnn3MataSERKS0_(ptr noundef nonnull align 8 dereferenceable(72) %0, ptr noundef nonnull align 8 dereferenceable(72) %1) #5 comdat align 2 {
  %3 = alloca ptr, align 8
  %4 = alloca ptr, align 8
  %5 = alloca ptr, align 8
  %6 = alloca i32, align 4
  %7 = alloca i32, align 4
  store ptr %0, ptr %4, align 8, !tbaa !53
  store ptr %1, ptr %5, align 8, !tbaa !53
  %8 = load ptr, ptr %4, align 8
  %9 = load ptr, ptr %5, align 8, !tbaa !53
  %10 = icmp eq ptr %8, %9
  br i1 %10, label %11, label %12

11:                                               ; preds = %2
  store ptr %8, ptr %3, align 8
  br label %68

12:                                               ; preds = %2
  %13 = load ptr, ptr %5, align 8, !tbaa !53
  %14 = getelementptr inbounds nuw %"class.ncnn::Mat", ptr %13, i32 0, i32 1
  %15 = load ptr, ptr %14, align 8, !tbaa !73
  %16 = icmp ne ptr %15, null
  br i1 %16, label %17, label %23

17:                                               ; preds = %12
  %18 = load ptr, ptr %5, align 8, !tbaa !53
  %19 = getelementptr inbounds nuw %"class.ncnn::Mat", ptr %18, i32 0, i32 1
  %20 = load ptr, ptr %19, align 8, !tbaa !73
  store i32 1, ptr %6, align 4, !tbaa !55
  %21 = load i32, ptr %6, align 4
  %22 = atomicrmw add ptr %20, i32 %21 acq_rel, align 4
  store i32 %22, ptr %7, align 4
  br label %23

23:                                               ; preds = %17, %12
  call void @_ZN4ncnn3Mat7releaseEv(ptr noundef nonnull align 8 dereferenceable(72) %8)
  %24 = load ptr, ptr %5, align 8, !tbaa !53
  %25 = getelementptr inbounds nuw %"class.ncnn::Mat", ptr %24, i32 0, i32 0
  %26 = load ptr, ptr %25, align 8, !tbaa !72
  %27 = getelementptr inbounds nuw %"class.ncnn::Mat", ptr %8, i32 0, i32 0
  store ptr %26, ptr %27, align 8, !tbaa !72
  %28 = load ptr, ptr %5, align 8, !tbaa !53
  %29 = getelementptr inbounds nuw %"class.ncnn::Mat", ptr %28, i32 0, i32 1
  %30 = load ptr, ptr %29, align 8, !tbaa !73
  %31 = getelementptr inbounds nuw %"class.ncnn::Mat", ptr %8, i32 0, i32 1
  store ptr %30, ptr %31, align 8, !tbaa !73
  %32 = load ptr, ptr %5, align 8, !tbaa !53
  %33 = getelementptr inbounds nuw %"class.ncnn::Mat", ptr %32, i32 0, i32 2
  %34 = load i64, ptr %33, align 8, !tbaa !69
  %35 = getelementptr inbounds nuw %"class.ncnn::Mat", ptr %8, i32 0, i32 2
  store i64 %34, ptr %35, align 8, !tbaa !69
  %36 = load ptr, ptr %5, align 8, !tbaa !53
  %37 = getelementptr inbounds nuw %"class.ncnn::Mat", ptr %36, i32 0, i32 3
  %38 = load i32, ptr %37, align 8, !tbaa !74
  %39 = getelementptr inbounds nuw %"class.ncnn::Mat", ptr %8, i32 0, i32 3
  store i32 %38, ptr %39, align 8, !tbaa !74
  %40 = load ptr, ptr %5, align 8, !tbaa !53
  %41 = getelementptr inbounds nuw %"class.ncnn::Mat", ptr %40, i32 0, i32 4
  %42 = load ptr, ptr %41, align 8, !tbaa !75
  %43 = getelementptr inbounds nuw %"class.ncnn::Mat", ptr %8, i32 0, i32 4
  store ptr %42, ptr %43, align 8, !tbaa !75
  %44 = load ptr, ptr %5, align 8, !tbaa !53
  %45 = getelementptr inbounds nuw %"class.ncnn::Mat", ptr %44, i32 0, i32 5
  %46 = load i32, ptr %45, align 8, !tbaa !76
  %47 = getelementptr inbounds nuw %"class.ncnn::Mat", ptr %8, i32 0, i32 5
  store i32 %46, ptr %47, align 8, !tbaa !76
  %48 = load ptr, ptr %5, align 8, !tbaa !53
  %49 = getelementptr inbounds nuw %"class.ncnn::Mat", ptr %48, i32 0, i32 6
  %50 = load i32, ptr %49, align 4, !tbaa !56
  %51 = getelementptr inbounds nuw %"class.ncnn::Mat", ptr %8, i32 0, i32 6
  store i32 %50, ptr %51, align 4, !tbaa !56
  %52 = load ptr, ptr %5, align 8, !tbaa !53
  %53 = getelementptr inbounds nuw %"class.ncnn::Mat", ptr %52, i32 0, i32 7
  %54 = load i32, ptr %53, align 8, !tbaa !54
  %55 = getelementptr inbounds nuw %"class.ncnn::Mat", ptr %8, i32 0, i32 7
  store i32 %54, ptr %55, align 8, !tbaa !54
  %56 = load ptr, ptr %5, align 8, !tbaa !53
  %57 = getelementptr inbounds nuw %"class.ncnn::Mat", ptr %56, i32 0, i32 8
  %58 = load i32, ptr %57, align 4, !tbaa !77
  %59 = getelementptr inbounds nuw %"class.ncnn::Mat", ptr %8, i32 0, i32 8
  store i32 %58, ptr %59, align 4, !tbaa !77
  %60 = load ptr, ptr %5, align 8, !tbaa !53
  %61 = getelementptr inbounds nuw %"class.ncnn::Mat", ptr %60, i32 0, i32 9
  %62 = load i32, ptr %61, align 8, !tbaa !78
  %63 = getelementptr inbounds nuw %"class.ncnn::Mat", ptr %8, i32 0, i32 9
  store i32 %62, ptr %63, align 8, !tbaa !78
  %64 = load ptr, ptr %5, align 8, !tbaa !53
  %65 = getelementptr inbounds nuw %"class.ncnn::Mat", ptr %64, i32 0, i32 10
  %66 = load i64, ptr %65, align 8, !tbaa !79
  %67 = getelementptr inbounds nuw %"class.ncnn::Mat", ptr %8, i32 0, i32 10
  store i64 %66, ptr %67, align 8, !tbaa !79
  store ptr %8, ptr %3, align 8
  br label %68

68:                                               ; preds = %23, %11
  %69 = load ptr, ptr %3, align 8
  ret ptr %69
}

; Function Attrs: mustprogress uwtable
define hidden void @_ZNK4ncnn24DeconvolutionDepthWise1D11cut_paddingERKNS_3MatERS1_RKNS_6OptionE(ptr noundef nonnull align 8 dereferenceable(480) %0, ptr noundef nonnull align 8 dereferenceable(72) %1, ptr noundef nonnull align 8 dereferenceable(72) %2, ptr noundef nonnull align 8 dereferenceable(64) %3) #1 align 2 {
  %5 = alloca ptr, align 8
  %6 = alloca ptr, align 8
  %7 = alloca ptr, align 8
  %8 = alloca ptr, align 8
  %9 = alloca i32, align 4
  store ptr %0, ptr %5, align 8, !tbaa !4
  store ptr %1, ptr %6, align 8, !tbaa !53
  store ptr %2, ptr %7, align 8, !tbaa !53
  store ptr %3, ptr %8, align 8, !tbaa !51
  %10 = load ptr, ptr %5, align 8
  %11 = getelementptr inbounds nuw %"class.ncnn::DeconvolutionDepthWise1D", ptr %10, i32 0, i32 5
  %12 = load i32, ptr %11, align 8, !tbaa !37
  %13 = icmp sgt i32 %12, 0
  br i1 %13, label %18, label %14

14:                                               ; preds = %4
  %15 = getelementptr inbounds nuw %"class.ncnn::DeconvolutionDepthWise1D", ptr %10, i32 0, i32 6
  %16 = load i32, ptr %15, align 4, !tbaa !38
  %17 = icmp sgt i32 %16, 0
  br i1 %17, label %18, label %26

18:                                               ; preds = %14, %4
  %19 = load ptr, ptr %6, align 8, !tbaa !53
  %20 = load ptr, ptr %7, align 8, !tbaa !53
  %21 = getelementptr inbounds nuw %"class.ncnn::DeconvolutionDepthWise1D", ptr %10, i32 0, i32 5
  %22 = load i32, ptr %21, align 8, !tbaa !37
  %23 = getelementptr inbounds nuw %"class.ncnn::DeconvolutionDepthWise1D", ptr %10, i32 0, i32 6
  %24 = load i32, ptr %23, align 4, !tbaa !38
  %25 = load ptr, ptr %8, align 8, !tbaa !51
  call void @_ZN4ncnn15copy_cut_borderERKNS_3MatERS0_iiiiRKNS_6OptionE(ptr noundef nonnull align 8 dereferenceable(72) %19, ptr noundef nonnull align 8 dereferenceable(72) %20, i32 noundef 0, i32 noundef 0, i32 noundef %22, i32 noundef %24, ptr noundef nonnull align 8 dereferenceable(64) %25)
  br label %79

26:                                               ; preds = %14
  %27 = getelementptr inbounds nuw %"class.ncnn::DeconvolutionDepthWise1D", ptr %10, i32 0, i32 8
  %28 = load i32, ptr %27, align 4, !tbaa !40
  %29 = icmp sgt i32 %28, 0
  br i1 %29, label %30, label %74

30:                                               ; preds = %26
  call void @llvm.lifetime.start.p0(i64 4, ptr %9) #9
  %31 = load ptr, ptr %6, align 8, !tbaa !53
  %32 = getelementptr inbounds nuw %"class.ncnn::Mat", ptr %31, i32 0, i32 6
  %33 = load i32, ptr %32, align 4, !tbaa !56
  %34 = getelementptr inbounds nuw %"class.ncnn::DeconvolutionDepthWise1D", ptr %10, i32 0, i32 8
  %35 = load i32, ptr %34, align 4, !tbaa !40
  %36 = sub nsw i32 %33, %35
  store i32 %36, ptr %9, align 4, !tbaa !55
  %37 = getelementptr inbounds nuw %"class.ncnn::DeconvolutionDepthWise1D", ptr %10, i32 0, i32 5
  %38 = load i32, ptr %37, align 8, !tbaa !37
  %39 = icmp eq i32 %38, -233
  br i1 %39, label %44, label %40

40:                                               ; preds = %30
  %41 = getelementptr inbounds nuw %"class.ncnn::DeconvolutionDepthWise1D", ptr %10, i32 0, i32 6
  %42 = load i32, ptr %41, align 4, !tbaa !38
  %43 = icmp eq i32 %42, -233
  br i1 %43, label %44, label %54

44:                                               ; preds = %40, %30
  %45 = load ptr, ptr %6, align 8, !tbaa !53
  %46 = load ptr, ptr %7, align 8, !tbaa !53
  %47 = load i32, ptr %9, align 4, !tbaa !55
  %48 = sdiv i32 %47, 2
  %49 = load i32, ptr %9, align 4, !tbaa !55
  %50 = load i32, ptr %9, align 4, !tbaa !55
  %51 = sdiv i32 %50, 2
  %52 = sub nsw i32 %49, %51
  %53 = load ptr, ptr %8, align 8, !tbaa !51
  call void @_ZN4ncnn15copy_cut_borderERKNS_3MatERS0_iiiiRKNS_6OptionE(ptr noundef nonnull align 8 dereferenceable(72) %45, ptr noundef nonnull align 8 dereferenceable(72) %46, i32 noundef 0, i32 noundef 0, i32 noundef %48, i32 noundef %52, ptr noundef nonnull align 8 dereferenceable(64) %53)
  br label %73

54:                                               ; preds = %40
  %55 = getelementptr inbounds nuw %"class.ncnn::DeconvolutionDepthWise1D", ptr %10, i32 0, i32 5
  %56 = load i32, ptr %55, align 8, !tbaa !37
  %57 = icmp eq i32 %56, -234
  br i1 %57, label %62, label %58

58:                                               ; preds = %54
  %59 = getelementptr inbounds nuw %"class.ncnn::DeconvolutionDepthWise1D", ptr %10, i32 0, i32 6
  %60 = load i32, ptr %59, align 4, !tbaa !38
  %61 = icmp eq i32 %60, -234
  br i1 %61, label %62, label %72

62:                                               ; preds = %58, %54
  %63 = load ptr, ptr %6, align 8, !tbaa !53
  %64 = load ptr, ptr %7, align 8, !tbaa !53
  %65 = load i32, ptr %9, align 4, !tbaa !55
  %66 = load i32, ptr %9, align 4, !tbaa !55
  %67 = sdiv i32 %66, 2
  %68 = sub nsw i32 %65, %67
  %69 = load i32, ptr %9, align 4, !tbaa !55
  %70 = sdiv i32 %69, 2
  %71 = load ptr, ptr %8, align 8, !tbaa !51
  call void @_ZN4ncnn15copy_cut_borderERKNS_3MatERS0_iiiiRKNS_6OptionE(ptr noundef nonnull align 8 dereferenceable(72) %63, ptr noundef nonnull align 8 dereferenceable(72) %64, i32 noundef 0, i32 noundef 0, i32 noundef %68, i32 noundef %70, ptr noundef nonnull align 8 dereferenceable(64) %71)
  br label %72

72:                                               ; preds = %62, %58
  br label %73

73:                                               ; preds = %72, %44
  call void @llvm.lifetime.end.p0(i64 4, ptr %9) #9
  br label %78

74:                                               ; preds = %26
  %75 = load ptr, ptr %6, align 8, !tbaa !53
  %76 = load ptr, ptr %7, align 8, !tbaa !53
  %77 = call noundef nonnull align 8 dereferenceable(72) ptr @_ZN4ncnn3MataSERKS0_(ptr noundef nonnull align 8 dereferenceable(72) %76, ptr noundef nonnull align 8 dereferenceable(72) %75)
  br label %78

78:                                               ; preds = %74, %73
  br label %79

79:                                               ; preds = %78, %18
  ret void
}